target datalayout = "e-m:e-p270:32:32-p271:32:32-p272:64:64-i64:64-i128:128-f80:128-n8:16:32:64-S128"
target triple = "x86_64-pc-linux-gnu"

; Function Attrs: null_pointer_is_valid sspstrong uwtable
define internal zeroext i1 @string_utf8_validate(ptr noundef %0, i64 noundef %1, ptr noundef %2) #0 {
  %4 = alloca i1, align 1
  %5 = alloca ptr, align 8
  %6 = alloca i64, align 8
  %7 = alloca ptr, align 8
  %8 = alloca i8, align 1
  %9 = alloca ptr, align 8
  %10 = alloca i32, align 4
  store ptr %0, ptr %5, align 8
  store i64 %1, ptr %6, align 8
  store ptr %2, ptr %7, align 8
  call void @llvm.lifetime.start.p0(i64 1, ptr %8) #15
  call void @llvm.lifetime.start.p0(i64 8, ptr %9) #15
  %11 = load i64, ptr %6, align 8
  %12 = icmp sle i64 %11, 0
  br i1 %12, label %13, label %20

13:                                               ; preds = %3
  %14 = load ptr, ptr %7, align 8
  %15 = icmp ne ptr %14, null
  br i1 %15, label %16, label %19

16:                                               ; preds = %13
  %17 = load ptr, ptr %5, align 8
  %18 = load ptr, ptr %7, align 8
  store ptr %17, ptr %18, align 8
  br label %19

19:                                               ; preds = %16, %13
  store i1 true, ptr %4, align 1
  store i32 1, ptr %10, align 4
  br label %71

20:                                               ; preds = %3
  %21 = load ptr, ptr %5, align 8
  %22 = load i64, ptr %6, align 8
  %23 = call i32 @g_utf8_validate(ptr noundef %21, i64 noundef %22, ptr noundef %9)
  %24 = icmp ne i32 %23, 0
  %25 = zext i1 %24 to i8
  store i8 %25, ptr %8, align 1
  %26 = load i8, ptr %8, align 1, !range !10, !noundef !11
  %27 = trunc i8 %26 to i1
  br i1 %27, label %33, label %28

28:                                               ; preds = %20
  %29 = load ptr, ptr %9, align 8
  %30 = load i8, ptr %29, align 1
  %31 = sext i8 %30 to i32
  %32 = icmp ne i32 %31, 0
  br i1 %32, label %33, label %42

33:                                               ; preds = %28, %20
  %34 = load ptr, ptr %7, align 8
  %35 = icmp ne ptr %34, null
  br i1 %35, label %36, label %39

36:                                               ; preds = %33
  %37 = load ptr, ptr %9, align 8
  %38 = load ptr, ptr %7, align 8
  store ptr %37, ptr %38, align 8
  br label %39

39:                                               ; preds = %36, %33
  %40 = load i8, ptr %8, align 1, !range !10, !noundef !11
  %41 = trunc i8 %40 to i1
  store i1 %41, ptr %4, align 1
  store i32 1, ptr %10, align 4
  br label %71

42:                                               ; preds = %28
  %43 = load ptr, ptr %9, align 8
  %44 = load ptr, ptr %5, align 8
  %45 = ptrtoint ptr %43 to i64
  %46 = ptrtoint ptr %44 to i64
  %47 = sub i64 %45, %46
  %48 = load i64, ptr %6, align 8
  %49 = sub i64 %48, %47
  store i64 %49, ptr %6, align 8
  %50 = load ptr, ptr %9, align 8
  store ptr %50, ptr %5, align 8
  br label %51

51:                                               ; preds = %61, %42
  %52 = load i64, ptr %6, align 8
  %53 = icmp sgt i64 %52, 0
  br i1 %53, label %54, label %59

54:                                               ; preds = %51
  %55 = load ptr, ptr %5, align 8
  %56 = load i8, ptr %55, align 1
  %57 = sext i8 %56 to i32
  %58 = icmp eq i32 %57, 0
  br label %59

59:                                               ; preds = %54, %51
  %60 = phi i1 [ false, %51 ], [ %58, %54 ]
  br i1 %60, label %61, label %66

61:                                               ; preds = %59
  %62 = load ptr, ptr %5, align 8
  %63 = getelementptr i8, ptr %62, i32 1
  store ptr %63, ptr %5, align 8
  %64 = load i64, ptr %6, align 8
  %65 = add i64 %64, -1
  store i64 %65, ptr %6, align 8
  br label %51, !llvm.loop !12

66:                                               ; preds = %59
  %67 = load ptr, ptr %5, align 8
  %68 = load i64, ptr %6, align 8
  %69 = load ptr, ptr %7, align 8
  %70 = call zeroext i1 @string_utf8_validate(ptr noundef %67, i64 noundef %68, ptr noundef %69)
  store i1 %70, ptr %4, align 1
  store i32 1, ptr %10, align 4
  br label %71

71:                                               ; preds = %66, %39, %19
  call void @llvm.lifetime.end.p0(i64 8, ptr %9) #15
  call void @llvm.lifetime.end.p0(i64 1, ptr %8) #15
  %72 = load i1, ptr %4, align 1
  ret i1 %72
}