; Function Attrs: null_pointer_is_valid sspstrong uwtable
define internal fastcc zeroext i1 @string_utf8_validate(ptr noundef %0, i64 noundef %1, ptr noundef captures(address_is_null) %2) unnamed_addr #0 {
  %4 = alloca ptr, align 8
  call void @llvm.lifetime.start.p0(i64 8, ptr nonnull %4) #17
  %5 = icmp slt i64 %1, 1
  br i1 %5, label %6, label %8

6:                                                ; preds = %3
  %.not24 = icmp eq ptr %2, null
  br i1 %.not24, label %29, label %7

7:                                                ; preds = %6
  store ptr %0, ptr %2, align 8
  br label %29

8:                                                ; preds = %3
  %9 = call i32 @g_utf8_validate(ptr noundef %0, i64 noundef %1, ptr noundef nonnull %4)
  %10 = icmp ne i32 %9, 0
  br i1 %10, label %14, label %11

11:                                               ; preds = %8
  %12 = load ptr, ptr %4, align 8
  %13 = load i8, ptr %12, align 1
  %.not = icmp eq i8 %13, 0
  br i1 %.not, label %17, label %14

14:                                               ; preds = %11, %8
  %.not23 = icmp eq ptr %2, null
  br i1 %.not23, label %29, label %15

15:                                               ; preds = %14
  %16 = load ptr, ptr %4, align 8
  store ptr %16, ptr %2, align 8
  br label %29

17:                                               ; preds = %11
  %18 = ptrtoint ptr %12 to i64
  %19 = ptrtoint ptr %0 to i64
  %.neg = add i64 %1, %19
  %20 = sub i64 %.neg, %18
  %21 = icmp sgt i64 %20, 0
  br i1 %21, label %.lr.ph, label %.critedge

.lr.ph:                                           ; preds = %17, %24
  %.01927 = phi ptr [ %25, %24 ], [ %12, %17 ]
  %.02026 = phi i64 [ %26, %24 ], [ %20, %17 ]
  %22 = load i8, ptr %.01927, align 1
  %23 = icmp eq i8 %22, 0
  br i1 %23, label %24, label %.critedge

24:                                               ; preds = %.lr.ph
  %25 = getelementptr i8, ptr %.01927, i64 1
  %26 = add nsw i64 %.02026, -1
  %27 = icmp sgt i64 %.02026, 1
  br i1 %27, label %.lr.ph, label %.critedge, !llvm.loop !22

.critedge:                                        ; preds = %.lr.ph, %24, %17
  %.020.lcssa = phi i64 [ %20, %17 ], [ 0, %24 ], [ %.02026, %.lr.ph ]
  %.019.lcssa = phi ptr [ %12, %17 ], [ %25, %24 ], [ %.01927, %.lr.ph ]
  %28 = call fastcc zeroext i1 @string_utf8_validate(ptr noundef %.019.lcssa, i64 noundef %.020.lcssa, ptr noundef %2)
  br label %29

29:                                               ; preds = %14, %15, %6, %7, %.critedge
  %.0 = phi i1 [ %28, %.critedge ], [ true, %7 ], [ true, %6 ], [ %10, %15 ], [ %10, %14 ]
  call void @llvm.lifetime.end.p0(i64 8, ptr nonnull %4) #17
  ret i1 %.0
}